target datalayout = "e-m:e-p270:32:32-p271:32:32-p272:64:64-i64:64-i128:128-f80:128-n8:16:32:64-S128"
target triple = "x86_64-pc-linux-gnu"

%"class.open3d::core::Dtype" = type { i32, i64, [16 x i8] }
%"class.std::__cxx11::basic_string" = type { %"struct.std::__cxx11::basic_string<char>::_Alloc_hider", i64, %union.anon }
%"struct.std::__cxx11::basic_string<char>::_Alloc_hider" = type { ptr }
%union.anon = type { i64, [8 x i8] }

@.str.36 = private unnamed_addr constant [117 x i8] c"generated/home/dtcxzyw/WorkSpace/Projects/compilers/llvm-opt-benchmark/bench/open3d/Open3D/cpp/open3d/core/Dtype.cpp\00", align 1
@__PRETTY_FUNCTION__._ZN6open3d4core5DtypeC2ENS1_9DtypeCodeElRKNSt7__cxx1112basic_stringIcSt11char_traitsIcESaIcEEE = private unnamed_addr constant [68 x i8] c"open3d::core::Dtype::Dtype(DtypeCode, int64_t, const std::string &)\00", align 1
@.str.37 = private unnamed_addr constant [25 x i8] c"Name {} must be shorter.\00", align 1

; Function Attrs: mustprogress nounwind ssp uwtable
define available_externally noundef ptr @_ZNKSt7__cxx1112basic_stringIcSt11char_traitsIcESaIcEE7_M_dataEv(ptr noundef nonnull align 8 dereferenceable(32) %0) #4 align 2 {
  %2 = alloca ptr, align 8
  store ptr %0, ptr %2, align 8, !tbaa !9
  %3 = load ptr, ptr %2, align 8
  %4 = getelementptr inbounds nuw %"class.std::__cxx11::basic_string", ptr %3, i32 0, i32 0
  %5 = getelementptr inbounds nuw %"struct.std::__cxx11::basic_string<char>::_Alloc_hider", ptr %4, i32 0, i32 0
  %6 = load ptr, ptr %5, align 8, !tbaa !23
  ret ptr %6
}

; Function Attrs: alwaysinline mustprogress nounwind
define internal ptr @strncpy.inline(ptr noalias nonnull %0, ptr noalias nonnull %1, i64 %2) #14 {
  %4 = alloca ptr, align 8
  %5 = alloca ptr, align 8
  %6 = alloca i64, align 8
  store ptr %0, ptr %4, align 8, !tbaa !11
  store ptr %1, ptr %5, align 8, !tbaa !11
  store i64 %2, ptr %6, align 8, !tbaa !19
  %7 = load ptr, ptr %4, align 8, !tbaa !11
  %8 = load ptr, ptr %5, align 8, !tbaa !11
  %9 = load i64, ptr %6, align 8, !tbaa !19
  %10 = load ptr, ptr %4, align 8, !tbaa !11
  %11 = call i64 @llvm.objectsize.i64.p0(ptr %10, i1 false, i1 true, i1 false)
  %12 = call ptr @__strncpy_chk(ptr noundef %7, ptr noundef %8, i64 noundef %9, i64 noundef %11) #25
  ret ptr %12
}

; Function Attrs: mustprogress nounwind ssp uwtable
define available_externally noundef ptr @_ZNKSt7__cxx1112basic_stringIcSt11char_traitsIcESaIcEE5c_strEv(ptr noundef nonnull align 8 dereferenceable(32) %0) #4 align 2 {
  %2 = alloca ptr, align 8
  store ptr %0, ptr %2, align 8, !tbaa !9
  %3 = load ptr, ptr %2, align 8
  %4 = call noundef ptr @_ZNKSt7__cxx1112basic_stringIcSt11char_traitsIcESaIcEE7_M_dataEv(ptr noundef nonnull align 8 dereferenceable(32) %3)
  ret ptr %4
}

; Function Attrs: mustprogress nounwind ssp uwtable
define available_externally noundef i64 @_ZNKSt7__cxx1112basic_stringIcSt11char_traitsIcESaIcEE4sizeEv(ptr noundef nonnull align 8 dereferenceable(32) %0) #4 align 2 {
  %2 = alloca ptr, align 8
  store ptr %0, ptr %2, align 8, !tbaa !9
  %3 = load ptr, ptr %2, align 8
  %4 = getelementptr inbounds nuw %"class.std::__cxx11::basic_string", ptr %3, i32 0, i32 1
  %5 = load i64, ptr %4, align 8, !tbaa !31
  ret i64 %5
}

; Function Attrs: mustprogress ssp uwtable
define void @_ZN6open3d4core5DtypeC2ENS1_9DtypeCodeElRKNSt7__cxx1112basic_stringIcSt11char_traitsIcESaIcEEE(ptr noundef nonnull align 8 dereferenceable(32) %0, i32 noundef %1, i64 noundef %2, ptr noundef nonnull align 8 dereferenceable(32) %3) unnamed_addr #3 align 2 {
  %5 = alloca ptr, align 8
  %6 = alloca i32, align 4
  %7 = alloca i64, align 8
  %8 = alloca ptr, align 8
  store ptr %0, ptr %5, align 8, !tbaa !35
  store i32 %1, ptr %6, align 4, !tbaa !33
  store i64 %2, ptr %7, align 8, !tbaa !19
  store ptr %3, ptr %8, align 8, !tbaa !9
  %9 = load ptr, ptr %5, align 8
  %10 = getelementptr inbounds nuw %"class.open3d::core::Dtype", ptr %9, i32 0, i32 0
  %11 = load i32, ptr %6, align 4, !tbaa !33
  store i32 %11, ptr %10, align 8, !tbaa !37
  %12 = getelementptr inbounds nuw %"class.open3d::core::Dtype", ptr %9, i32 0, i32 1
  %13 = load i64, ptr %7, align 8, !tbaa !19
  store i64 %13, ptr %12, align 8, !tbaa !39
  %14 = load ptr, ptr %8, align 8, !tbaa !9
  %15 = call noundef i64 @_ZNKSt7__cxx1112basic_stringIcSt11char_traitsIcESaIcEE4sizeEv(ptr noundef nonnull align 8 dereferenceable(32) %14) #25
  %16 = icmp ugt i64 %15, 15
  br i1 %16, label %17, label %19

17:                                               ; preds = %4
  %18 = load ptr, ptr %8, align 8, !tbaa !9
  call void @_ZN6open3d7utility6Logger9LogError_IJRKNSt7__cxx1112basic_stringIcSt11char_traitsIcESaIcEEEEEEvPKciSC_SC_DpOT_(ptr noundef @.str.36, i32 noundef 57, ptr noundef @__PRETTY_FUNCTION__._ZN6open3d4core5DtypeC2ENS1_9DtypeCodeElRKNSt7__cxx1112basic_stringIcSt11char_traitsIcESaIcEEE, ptr noundef @.str.37, ptr noundef nonnull align 8 dereferenceable(32) %18) #26
  unreachable

19:                                               ; preds = %4
  %20 = getelementptr inbounds nuw %"class.open3d::core::Dtype", ptr %9, i32 0, i32 2
  %21 = getelementptr inbounds [16 x i8], ptr %20, i64 0, i64 0
  %22 = load ptr, ptr %8, align 8, !tbaa !9
  %23 = call noundef ptr @_ZNKSt7__cxx1112basic_stringIcSt11char_traitsIcESaIcEE5c_strEv(ptr noundef nonnull align 8 dereferenceable(32) %22) #25
  %24 = call ptr @strncpy.inline(ptr noundef %21, ptr noundef %23, i64 noundef 16) #25
  %25 = getelementptr inbounds nuw %"class.open3d::core::Dtype", ptr %9, i32 0, i32 2
  %26 = getelementptr inbounds nuw [16 x i8], ptr %25, i64 0, i64 15
  store i8 0, ptr %26, align 1, !tbaa !25
  br label %27

27:                                               ; preds = %19
  ret void
}