; Function Attrs: mustprogress ssp uwtable
define void @_ZN6open3d4core5DtypeC2ENS1_9DtypeCodeElRKNSt7__cxx1112basic_stringIcSt11char_traitsIcESaIcEEE(ptr noundef nonnull align 8 dereferenceable(32) initializes((0, 4), (8, 16)) %0, i32 noundef %1, i64 noundef %2, ptr noundef nonnull align 8 dereferenceable(32) %3) unnamed_addr #8 align 2 {
  store i32 %1, ptr %0, align 8, !tbaa !4
  %5 = getelementptr inbounds nuw i8, ptr %0, i64 8
  store i64 %2, ptr %5, align 8, !tbaa !10
  %6 = getelementptr inbounds nuw i8, ptr %3, i64 8
  %7 = load i64, ptr %6, align 8, !tbaa !11
  %8 = icmp ugt i64 %7, 15
  br i1 %8, label %9, label %10

9:                                                ; preds = %4
  tail call void @_ZN6open3d7utility6Logger9LogError_IJRKNSt7__cxx1112basic_stringIcSt11char_traitsIcESaIcEEEEEEvPKciSC_SC_DpOT_(ptr noundef nonnull @.str.36, i32 noundef 57, ptr noundef nonnull @__PRETTY_FUNCTION__._ZN6open3d4core5DtypeC2ENS1_9DtypeCodeElRKNSt7__cxx1112basic_stringIcSt11char_traitsIcESaIcEEE, ptr noundef nonnull @.str.37, ptr noundef nonnull align 8 dereferenceable(32) %3) #32
  unreachable

10:                                               ; preds = %4
  %11 = getelementptr inbounds nuw i8, ptr %0, i64 16
  %12 = load ptr, ptr %3, align 8, !tbaa !16
  %strncpy = tail call ptr @strncpy(ptr noundef nonnull dereferenceable(1) %11, ptr noundef nonnull dereferenceable(1) %12, i64 16)
  %13 = getelementptr inbounds nuw i8, ptr %0, i64 31
  store i8 0, ptr %13, align 1, !tbaa !17
  ret void
}